; Function Attrs: mustprogress uwtable
define internal noundef range(i32 0, 2) i32 @_ZN2cv12ppf_match_3dL16sortPoseClustersERKNS_3PtrINS0_13PoseCluster3DEEES5_(ptr noundef nonnull readonly align 8 captures(none) dereferenceable(16) %0, ptr noundef nonnull readonly align 8 captures(none) dereferenceable(16) %1) #7 personality ptr @__gxx_personality_v0 {
  %3 = alloca %"class.std::__cxx11::basic_string", align 8
  %4 = alloca %"class.std::allocator", align 1
  %5 = load ptr, ptr %0, align 8, !tbaa !150
  %6 = icmp eq ptr %5, null
  br i1 %6, label %10, label %7

7:                                                ; preds = %2
  %8 = load ptr, ptr %1, align 8, !tbaa !150
  %9 = icmp eq ptr %8, null
  br i1 %9, label %10, label %20

10:                                               ; preds = %7, %2
  call void @llvm.lifetime.start.p0(i64 32, ptr nonnull %3) #27
  call void @llvm.lifetime.start.p0(i64 1, ptr nonnull %4) #27
  call void @_ZNSt7__cxx1112basic_stringIcSt11char_traitsIcESaIcEEC2EPKcRKS3_(ptr noundef nonnull align 8 dereferenceable(32) %3, ptr noundef nonnull @.str.5, ptr noundef nonnull align 1 dereferenceable(1) %4)
  invoke void @_ZN2cv5errorEiRKNSt7__cxx1112basic_stringIcSt11char_traitsIcESaIcEEEPKcS9_i(i32 noundef -215, ptr noundef nonnull align 8 dereferenceable(32) %3, ptr noundef nonnull @__func__._ZN2cv12ppf_match_3dL16sortPoseClustersERKNS_3PtrINS0_13PoseCluster3DEEES5_, ptr noundef nonnull @.str.1, i32 noundef 60) #30
          to label %11 unwind label %12

11:                                               ; preds = %10
  unreachable

12:                                               ; preds = %10
  %13 = landingpad { ptr, i32 }
          cleanup
  %14 = load ptr, ptr %3, align 8, !tbaa !45
  %15 = getelementptr inbounds nuw i8, ptr %3, i64 16
  %16 = icmp eq ptr %14, %15
  br i1 %16, label %_ZNKSt7__cxx1112basic_stringIcSt11char_traitsIcESaIcEE11_M_is_localEv.exit.thread.i.i, label %_ZNKSt7__cxx1112basic_stringIcSt11char_traitsIcESaIcEE11_M_is_localEv.exit.i.i

_ZNKSt7__cxx1112basic_stringIcSt11char_traitsIcESaIcEE11_M_is_localEv.exit.thread.i.i: ; preds = %12
  %17 = getelementptr inbounds nuw i8, ptr %3, i64 8
  %18 = load i64, ptr %17, align 8, !tbaa !49
  %19 = icmp ult i64 %18, 16
  call void @llvm.assume(i1 %19)
  br label %_ZNSt7__cxx1112basic_stringIcSt11char_traitsIcESaIcEED2Ev.exit

_ZNKSt7__cxx1112basic_stringIcSt11char_traitsIcESaIcEE11_M_is_localEv.exit.i.i: ; preds = %12
  call void @_ZdlPv(ptr noundef %14) #29
  br label %_ZNSt7__cxx1112basic_stringIcSt11char_traitsIcESaIcEED2Ev.exit

_ZNSt7__cxx1112basic_stringIcSt11char_traitsIcESaIcEED2Ev.exit: ; preds = %_ZNKSt7__cxx1112basic_stringIcSt11char_traitsIcESaIcEE11_M_is_localEv.exit.i.i, %_ZNKSt7__cxx1112basic_stringIcSt11char_traitsIcESaIcEE11_M_is_localEv.exit.thread.i.i
  call void @llvm.lifetime.end.p0(i64 1, ptr nonnull %4) #27
  call void @llvm.lifetime.end.p0(i64 32, ptr nonnull %3) #27
  resume { ptr, i32 } %13

20:                                               ; preds = %7
  %21 = getelementptr inbounds nuw i8, ptr %5, i64 32
  %22 = load i64, ptr %21, align 8, !tbaa !158
  %23 = getelementptr inbounds nuw i8, ptr %8, i64 32
  %24 = load i64, ptr %23, align 8, !tbaa !158
  %25 = icmp ugt i64 %22, %24
  %26 = zext i1 %25 to i32
  ret i32 %26
}